; Function Attrs: inlinehint mustprogress nounwind uwtable
define internal fastcc void @_ZSt8_DestroyIPZN5arrow8internal12_GLOBAL__N_124GetPlatformTemporaryDirsB5cxx11EvE15TempDirSelectorEvT_S5_(ptr noundef readonly captures(address) %0, ptr noundef readnone captures(address) %1) unnamed_addr #30 personality ptr @__gxx_personality_v0 {
  %.not4.i = icmp eq ptr %0, %1
  br i1 %.not4.i, label %_ZNSt12_Destroy_auxILb0EE9__destroyIPZN5arrow8internal12_GLOBAL__N_124GetPlatformTemporaryDirsB5cxx11EvE15TempDirSelectorEEvT_S7_.exit, label %.lr.ph.i

.lr.ph.i:                                         ; preds = %2, %_ZSt8_DestroyIZN5arrow8internal12_GLOBAL__N_124GetPlatformTemporaryDirsB5cxx11EvE15TempDirSelectorEvPT_.exit.i
  %.05.i = phi ptr [ %20, %_ZSt8_DestroyIZN5arrow8internal12_GLOBAL__N_124GetPlatformTemporaryDirsB5cxx11EvE15TempDirSelectorEvPT_.exit.i ], [ %0, %2 ]
  %3 = getelementptr inbounds nuw i8, ptr %.05.i, i64 32
  %4 = load ptr, ptr %3, align 8, !tbaa !11
  %5 = getelementptr inbounds nuw i8, ptr %.05.i, i64 48
  %6 = icmp eq ptr %4, %5
  br i1 %6, label %_ZNKSt7__cxx1112basic_stringIcSt11char_traitsIcESaIcEE11_M_is_localEv.exit.thread.i.i.i.i.i, label %_ZNKSt7__cxx1112basic_stringIcSt11char_traitsIcESaIcEE11_M_is_localEv.exit.i.i.i.i.i

_ZNKSt7__cxx1112basic_stringIcSt11char_traitsIcESaIcEE11_M_is_localEv.exit.thread.i.i.i.i.i: ; preds = %.lr.ph.i
  %7 = getelementptr inbounds nuw i8, ptr %.05.i, i64 40
  %8 = load i64, ptr %7, align 8, !tbaa !14
  %9 = icmp ult i64 %8, 16
  tail call void @llvm.assume(i1 %9)
  br label %_ZNSt7__cxx1112basic_stringIcSt11char_traitsIcESaIcEED2Ev.exit.i.i.i

_ZNKSt7__cxx1112basic_stringIcSt11char_traitsIcESaIcEE11_M_is_localEv.exit.i.i.i.i.i: ; preds = %.lr.ph.i
  %10 = load i64, ptr %5, align 8, !tbaa !13
  %11 = add i64 %10, 1
  tail call void @_ZdlPvm(ptr noundef %4, i64 noundef %11) #41
  br label %_ZNSt7__cxx1112basic_stringIcSt11char_traitsIcESaIcEED2Ev.exit.i.i.i

_ZNSt7__cxx1112basic_stringIcSt11char_traitsIcESaIcEED2Ev.exit.i.i.i: ; preds = %_ZNKSt7__cxx1112basic_stringIcSt11char_traitsIcESaIcEE11_M_is_localEv.exit.i.i.i.i.i, %_ZNKSt7__cxx1112basic_stringIcSt11char_traitsIcESaIcEE11_M_is_localEv.exit.thread.i.i.i.i.i
  %12 = load ptr, ptr %.05.i, align 8, !tbaa !11
  %13 = getelementptr inbounds nuw i8, ptr %.05.i, i64 16
  %14 = icmp eq ptr %12, %13
  br i1 %14, label %_ZNKSt7__cxx1112basic_stringIcSt11char_traitsIcESaIcEE11_M_is_localEv.exit.thread.i.i2.i.i.i, label %_ZNKSt7__cxx1112basic_stringIcSt11char_traitsIcESaIcEE11_M_is_localEv.exit.i.i1.i.i.i

_ZNKSt7__cxx1112basic_stringIcSt11char_traitsIcESaIcEE11_M_is_localEv.exit.thread.i.i2.i.i.i: ; preds = %_ZNSt7__cxx1112basic_stringIcSt11char_traitsIcESaIcEED2Ev.exit.i.i.i
  %15 = getelementptr inbounds nuw i8, ptr %.05.i, i64 8
  %16 = load i64, ptr %15, align 8, !tbaa !14
  %17 = icmp ult i64 %16, 16
  tail call void @llvm.assume(i1 %17)
  br label %_ZSt8_DestroyIZN5arrow8internal12_GLOBAL__N_124GetPlatformTemporaryDirsB5cxx11EvE15TempDirSelectorEvPT_.exit.i

_ZNKSt7__cxx1112basic_stringIcSt11char_traitsIcESaIcEE11_M_is_localEv.exit.i.i1.i.i.i: ; preds = %_ZNSt7__cxx1112basic_stringIcSt11char_traitsIcESaIcEED2Ev.exit.i.i.i
  %18 = load i64, ptr %13, align 8, !tbaa !13
  %19 = add i64 %18, 1
  tail call void @_ZdlPvm(ptr noundef %12, i64 noundef %19) #41
  br label %_ZSt8_DestroyIZN5arrow8internal12_GLOBAL__N_124GetPlatformTemporaryDirsB5cxx11EvE15TempDirSelectorEvPT_.exit.i

_ZSt8_DestroyIZN5arrow8internal12_GLOBAL__N_124GetPlatformTemporaryDirsB5cxx11EvE15TempDirSelectorEvPT_.exit.i: ; preds = %_ZNKSt7__cxx1112basic_stringIcSt11char_traitsIcESaIcEE11_M_is_localEv.exit.i.i1.i.i.i, %_ZNKSt7__cxx1112basic_stringIcSt11char_traitsIcESaIcEE11_M_is_localEv.exit.thread.i.i2.i.i.i
  %20 = getelementptr inbounds nuw i8, ptr %.05.i, i64 64
  %.not.i = icmp eq ptr %20, %1
  br i1 %.not.i, label %_ZNSt12_Destroy_auxILb0EE9__destroyIPZN5arrow8internal12_GLOBAL__N_124GetPlatformTemporaryDirsB5cxx11EvE15TempDirSelectorEEvT_S7_.exit, label %.lr.ph.i, !llvm.loop !574

_ZNSt12_Destroy_auxILb0EE9__destroyIPZN5arrow8internal12_GLOBAL__N_124GetPlatformTemporaryDirsB5cxx11EvE15TempDirSelectorEEvT_S7_.exit: ; preds = %_ZSt8_DestroyIZN5arrow8internal12_GLOBAL__N_124GetPlatformTemporaryDirsB5cxx11EvE15TempDirSelectorEvPT_.exit.i, %2
  ret void
}